; Function Attrs: mustprogress uwtable
define noundef nonnull align 8 dereferenceable(16) ptr @_ZN6marisa4readERSiPNS_4TrieE(ptr noundef nonnull align 8 dereferenceable(16) %0, ptr noundef %1) local_unnamed_addr #5 personality ptr @__gxx_personality_v0 {
  %3 = icmp eq ptr %1, null
  br i1 %3, label %4, label %10

4:                                                ; preds = %2
  %5 = tail call ptr @__cxa_allocate_exception(i64 32) #12
  store ptr getelementptr inbounds nuw inrange(-16, 24) (i8, ptr @_ZTVN6marisa9ExceptionE, i64 16), ptr %5, align 8, !tbaa !9
  %6 = getelementptr inbounds nuw i8, ptr %5, i64 8
  store ptr @.str, ptr %6, align 8, !tbaa !11
  %7 = getelementptr inbounds nuw i8, ptr %5, i64 16
  store i32 233, ptr %7, align 8, !tbaa !17
  %8 = getelementptr inbounds nuw i8, ptr %5, i64 20
  store i32 2, ptr %8, align 4, !tbaa !18
  %9 = getelementptr inbounds nuw i8, ptr %5, i64 24
  store ptr @.str.30, ptr %9, align 8, !tbaa !19
  tail call void @__cxa_throw(ptr nonnull %5, ptr nonnull @_ZTIN6marisa9ExceptionE, ptr nonnull @_ZNSt9exceptionD2Ev) #15
  unreachable

10:                                               ; preds = %2
  %11 = tail call noundef nonnull align 8 dereferenceable(16) ptr @_ZN6marisa6TrieIO4readERSiPNS_4TrieE(ptr noundef nonnull align 8 dereferenceable(16) %0, ptr noundef nonnull %1)
  ret ptr %11
}